; Function Attrs: mustprogress nofree norecurse nosync nounwind willreturn memory(argmem: write) uwtable
define dso_local void @_ZN5vcpkg19ExtendedBuildResultC2ENS_11BuildResultE(ptr nocapture noundef nonnull writeonly align 8 dereferenceable(104) %0, i32 noundef %1) unnamed_addr #10 align 2 personality ptr @__gxx_personality_v0 {
  store i32 %1, ptr %0, align 8
  %3 = getelementptr inbounds i8, ptr %0, i64 8
  %4 = getelementptr inbounds i8, ptr %0, i64 48
  store i8 0, ptr %4, align 8
  %5 = getelementptr inbounds i8, ptr %0, i64 80
  tail call void @llvm.memset.p0.i64(ptr noundef nonnull align 8 dereferenceable(24) %5, i8 0, i64 24, i1 false)
  tail call void @llvm.memset.p0.i64(ptr noundef nonnull align 8 dereferenceable(33) %3, i8 0, i64 33, i1 false)
  ret void
}